target datalayout = "e-m:e-p270:32:32-p271:32:32-p272:64:64-i64:64-i128:128-f80:128-n8:16:32:64-S128"
target triple = "x86_64-pc-linux-gnu"

%"class.net::QuicFlowController" = type { ptr, i32, i32, i64, i64, i64, i64, i64, i64, i64, i8, i64, %"class.net::QuicTime" }
%"class.net::QuicTime" = type { i64 }

; Function Attrs: mustprogress nounwind uwtable
define noundef i64 @_ZNK3net18QuicFlowController14SendWindowSizeEv(ptr noundef nonnull align 8 dereferenceable(96) %0) #2 align 2 {
  %2 = alloca i64, align 8
  %3 = alloca ptr, align 8
  store ptr %0, ptr %3, align 8, !tbaa !3
  %4 = load ptr, ptr %3, align 8
  %5 = getelementptr inbounds nuw %"class.net::QuicFlowController", ptr %4, i32 0, i32 3
  %6 = load i64, ptr %5, align 8, !tbaa !23
  %7 = getelementptr inbounds nuw %"class.net::QuicFlowController", ptr %4, i32 0, i32 4
  %8 = load i64, ptr %7, align 8, !tbaa !24
  %9 = icmp ugt i64 %6, %8
  br i1 %9, label %10, label %11

10:                                               ; preds = %1
  store i64 0, ptr %2, align 8
  br label %17

11:                                               ; preds = %1
  %12 = getelementptr inbounds nuw %"class.net::QuicFlowController", ptr %4, i32 0, i32 4
  %13 = load i64, ptr %12, align 8, !tbaa !24
  %14 = getelementptr inbounds nuw %"class.net::QuicFlowController", ptr %4, i32 0, i32 3
  %15 = load i64, ptr %14, align 8, !tbaa !23
  %16 = sub i64 %13, %15
  store i64 %16, ptr %2, align 8
  br label %17

17:                                               ; preds = %11, %10
  %18 = load i64, ptr %2, align 8
  ret i64 %18
}

; Function Attrs: mustprogress uwtable
define void @_ZN3net18QuicFlowController16MaybeSendBlockedEv(ptr noundef nonnull align 8 dereferenceable(96) %0) #0 align 2 {
  %2 = alloca ptr, align 8
  store ptr %0, ptr %2, align 8, !tbaa !3
  %3 = load ptr, ptr %2, align 8
  %4 = call noundef i64 @_ZNK3net18QuicFlowController14SendWindowSizeEv(ptr noundef nonnull align 8 dereferenceable(96) %3)
  %5 = icmp eq i64 %4, 0
  br i1 %5, label %6, label %23

6:                                                ; preds = %1
  %7 = getelementptr inbounds nuw %"class.net::QuicFlowController", ptr %3, i32 0, i32 11
  %8 = load i64, ptr %7, align 8, !tbaa !32
  %9 = getelementptr inbounds nuw %"class.net::QuicFlowController", ptr %3, i32 0, i32 4
  %10 = load i64, ptr %9, align 8, !tbaa !24
  %11 = icmp ult i64 %8, %10
  br i1 %11, label %12, label %23

12:                                               ; preds = %6
  %13 = getelementptr inbounds nuw %"class.net::QuicFlowController", ptr %3, i32 0, i32 0
  %14 = load ptr, ptr %13, align 8, !tbaa !18
  %15 = getelementptr inbounds nuw %"class.net::QuicFlowController", ptr %3, i32 0, i32 1
  %16 = load i32, ptr %15, align 8, !tbaa !21
  %17 = load ptr, ptr %14, align 8, !tbaa !34
  %18 = getelementptr inbounds ptr, ptr %17, i64 29
  %19 = load ptr, ptr %18, align 8
  call void %19(ptr noundef nonnull align 8 dereferenceable(3372) %14, i32 noundef %16)
  %20 = getelementptr inbounds nuw %"class.net::QuicFlowController", ptr %3, i32 0, i32 4
  %21 = load i64, ptr %20, align 8, !tbaa !24
  %22 = getelementptr inbounds nuw %"class.net::QuicFlowController", ptr %3, i32 0, i32 11
  store i64 %21, ptr %22, align 8, !tbaa !32
  br label %23

23:                                               ; preds = %12, %6, %1
  ret void
}