; Function Attrs: mustprogress uwtable
define void @_ZN3net18QuicFlowController16MaybeSendBlockedEv(ptr noundef nonnull align 8 captures(none) dereferenceable(96) %0) local_unnamed_addr #1 align 2 {
  %2 = getelementptr inbounds nuw i8, ptr %0, i64 16
  %3 = load i64, ptr %2, align 8, !tbaa !16
  %4 = getelementptr inbounds nuw i8, ptr %0, i64 24
  %5 = load i64, ptr %4, align 8, !tbaa !17
  %.not = icmp ugt i64 %5, %3
  br i1 %.not, label %18, label %6

6:                                                ; preds = %1
  %7 = getelementptr inbounds nuw i8, ptr %0, i64 80
  %8 = load i64, ptr %7, align 8, !tbaa !185
  %9 = icmp ult i64 %8, %5
  br i1 %9, label %10, label %18

10:                                               ; preds = %6
  %11 = load ptr, ptr %0, align 8, !tbaa !3
  %12 = getelementptr inbounds nuw i8, ptr %0, i64 8
  %13 = load i32, ptr %12, align 8, !tbaa !14
  %14 = load ptr, ptr %11, align 8, !tbaa !174
  %15 = getelementptr inbounds nuw i8, ptr %14, i64 232
  %16 = load ptr, ptr %15, align 8
  tail call void %16(ptr noundef nonnull align 8 dereferenceable(3372) %11, i32 noundef %13)
  %17 = load i64, ptr %4, align 8, !tbaa !17
  store i64 %17, ptr %7, align 8, !tbaa !185
  br label %18

18:                                               ; preds = %10, %6, %1
  ret void
}